target datalayout = "e-m:e-p270:32:32-p271:32:32-p272:64:64-i64:64-i128:128-f80:128-n8:16:32:64-S128"
target triple = "x86_64-pc-linux-gnu"

@.str.17 = private unnamed_addr constant [39 x i8] c"bad boolean config value '%s' for '%s'\00", align 1
@.str.74 = private unnamed_addr constant [23 x i8] c"missing value for '%s'\00", align 1
@.str.83 = private unnamed_addr constant [6 x i8] c"local\00", align 1
@.str.177 = private unnamed_addr constant [22 x i8] c"branch.autosetupmerge\00", align 1
@.str.178 = private unnamed_addr constant [7 x i8] c"always\00", align 1
@git_branch_track = external global i32, align 4
@.str.179 = private unnamed_addr constant [8 x i8] c"inherit\00", align 1
@.str.180 = private unnamed_addr constant [7 x i8] c"simple\00", align 1
@.str.181 = private unnamed_addr constant [23 x i8] c"branch.autosetuprebase\00", align 1
@.str.182 = private unnamed_addr constant [6 x i8] c"never\00", align 1
@autorebase = external global i32, align 4
@.str.183 = private unnamed_addr constant [7 x i8] c"remote\00", align 1
@.str.184 = private unnamed_addr constant [23 x i8] c"malformed value for %s\00", align 1

; Function Attrs: inlinehint nounwind uwtable
define internal i32 @const_error() #6 {
  ret i32 -1
}

; Function Attrs: nounwind uwtable
define dso_local i32 @config_error_nonbool(ptr noundef %0) #0 {
  %2 = alloca ptr, align 8
  store ptr %0, ptr %2, align 8, !tbaa !4
  %3 = call ptr @_(ptr noundef @.str.74)
  %4 = load ptr, ptr %2, align 8, !tbaa !4
  %5 = call i32 (ptr, ...) @error(ptr noundef %3, ptr noundef %4)
  %6 = call i32 @const_error()
  ret i32 %6
}

; Function Attrs: nounwind uwtable
define dso_local i32 @git_config_bool(ptr noundef %0, ptr noundef %1) #0 {
  %3 = alloca ptr, align 8
  %4 = alloca ptr, align 8
  %5 = alloca i32, align 4
  store ptr %0, ptr %3, align 8, !tbaa !4
  store ptr %1, ptr %4, align 8, !tbaa !4
  call void @llvm.lifetime.start.p0(i64 4, ptr %5) #13
  %6 = load ptr, ptr %4, align 8, !tbaa !4
  %7 = call i32 @git_parse_maybe_bool(ptr noundef %6)
  store i32 %7, ptr %5, align 4, !tbaa !13
  %8 = load i32, ptr %5, align 4, !tbaa !13
  %9 = icmp slt i32 %8, 0
  br i1 %9, label %10, label %14

10:                                               ; preds = %2
  %11 = call ptr @_(ptr noundef @.str.17)
  %12 = load ptr, ptr %4, align 8, !tbaa !4
  %13 = load ptr, ptr %3, align 8, !tbaa !4
  call void (ptr, ...) @die(ptr noundef %11, ptr noundef %12, ptr noundef %13) #15
  unreachable

14:                                               ; preds = %2
  %15 = load i32, ptr %5, align 4, !tbaa !13
  call void @llvm.lifetime.end.p0(i64 4, ptr %5) #13
  ret i32 %15
}

; Function Attrs: nounwind uwtable
define internal i32 @git_default_branch_config(ptr noundef %0, ptr noundef %1) #0 {
  %3 = alloca i32, align 4
  %4 = alloca ptr, align 8
  %5 = alloca ptr, align 8
  store ptr %0, ptr %4, align 8, !tbaa !4
  store ptr %1, ptr %5, align 8, !tbaa !4
  %6 = load ptr, ptr %4, align 8, !tbaa !4
  %7 = call i32 @strcmp(ptr noundef %6, ptr noundef @.str.177) #14
  %8 = icmp ne i32 %7, 0
  br i1 %8, label %39, label %9

9:                                                ; preds = %2
  %10 = load ptr, ptr %5, align 8, !tbaa !4
  %11 = icmp ne ptr %10, null
  br i1 %11, label %12, label %17

12:                                               ; preds = %9
  %13 = load ptr, ptr %5, align 8, !tbaa !4
  %14 = call i32 @strcmp(ptr noundef %13, ptr noundef @.str.178) #14
  %15 = icmp ne i32 %14, 0
  br i1 %15, label %17, label %16

16:                                               ; preds = %12
  store i32 2, ptr @git_branch_track, align 4, !tbaa !13
  store i32 0, ptr %3, align 4
  br label %81

17:                                               ; preds = %12, %9
  %18 = load ptr, ptr %5, align 8, !tbaa !4
  %19 = icmp ne ptr %18, null
  br i1 %19, label %20, label %25

20:                                               ; preds = %17
  %21 = load ptr, ptr %5, align 8, !tbaa !4
  %22 = call i32 @strcmp(ptr noundef %21, ptr noundef @.str.179) #14
  %23 = icmp ne i32 %22, 0
  br i1 %23, label %25, label %24

24:                                               ; preds = %20
  store i32 5, ptr @git_branch_track, align 4, !tbaa !13
  store i32 0, ptr %3, align 4
  br label %81

25:                                               ; preds = %20, %17
  %26 = load ptr, ptr %5, align 8, !tbaa !4
  %27 = icmp ne ptr %26, null
  br i1 %27, label %28, label %33

28:                                               ; preds = %25
  %29 = load ptr, ptr %5, align 8, !tbaa !4
  %30 = call i32 @strcmp(ptr noundef %29, ptr noundef @.str.180) #14
  %31 = icmp ne i32 %30, 0
  br i1 %31, label %33, label %32

32:                                               ; preds = %28
  store i32 6, ptr @git_branch_track, align 4, !tbaa !13
  store i32 0, ptr %3, align 4
  br label %81

33:                                               ; preds = %28, %25
  br label %34

34:                                               ; preds = %33
  br label %35

35:                                               ; preds = %34
  %36 = load ptr, ptr %4, align 8, !tbaa !4
  %37 = load ptr, ptr %5, align 8, !tbaa !4
  %38 = call i32 @git_config_bool(ptr noundef %36, ptr noundef %37)
  store i32 %38, ptr @git_branch_track, align 4, !tbaa !13
  store i32 0, ptr %3, align 4
  br label %81

39:                                               ; preds = %2
  %40 = load ptr, ptr %4, align 8, !tbaa !4
  %41 = call i32 @strcmp(ptr noundef %40, ptr noundef @.str.181) #14
  %42 = icmp ne i32 %41, 0
  br i1 %42, label %80, label %43

43:                                               ; preds = %39
  %44 = load ptr, ptr %5, align 8, !tbaa !4
  %45 = icmp ne ptr %44, null
  br i1 %45, label %50, label %46

46:                                               ; preds = %43
  %47 = load ptr, ptr %4, align 8, !tbaa !4
  %48 = call i32 @config_error_nonbool(ptr noundef %47)
  %49 = call i32 @const_error()
  store i32 %49, ptr %3, align 4
  br label %81

50:                                               ; preds = %43
  %51 = load ptr, ptr %5, align 8, !tbaa !4
  %52 = call i32 @strcmp(ptr noundef %51, ptr noundef @.str.182) #14
  %53 = icmp ne i32 %52, 0
  br i1 %53, label %55, label %54

54:                                               ; preds = %50
  store i32 0, ptr @autorebase, align 4, !tbaa !13
  br label %78

55:                                               ; preds = %50
  %56 = load ptr, ptr %5, align 8, !tbaa !4
  %57 = call i32 @strcmp(ptr noundef %56, ptr noundef @.str.83) #14
  %58 = icmp ne i32 %57, 0
  br i1 %58, label %60, label %59

59:                                               ; preds = %55
  store i32 1, ptr @autorebase, align 4, !tbaa !13
  br label %77

60:                                               ; preds = %55
  %61 = load ptr, ptr %5, align 8, !tbaa !4
  %62 = call i32 @strcmp(ptr noundef %61, ptr noundef @.str.183) #14
  %63 = icmp ne i32 %62, 0
  br i1 %63, label %65, label %64

64:                                               ; preds = %60
  store i32 2, ptr @autorebase, align 4, !tbaa !13
  br label %76

65:                                               ; preds = %60
  %66 = load ptr, ptr %5, align 8, !tbaa !4
  %67 = call i32 @strcmp(ptr noundef %66, ptr noundef @.str.178) #14
  %68 = icmp ne i32 %67, 0
  br i1 %68, label %70, label %69

69:                                               ; preds = %65
  store i32 3, ptr @autorebase, align 4, !tbaa !13
  br label %75

70:                                               ; preds = %65
  %71 = call ptr @_(ptr noundef @.str.184)
  %72 = load ptr, ptr %4, align 8, !tbaa !4
  %73 = call i32 (ptr, ...) @error(ptr noundef %71, ptr noundef %72)
  %74 = call i32 @const_error()
  store i32 %74, ptr %3, align 4
  br label %81

75:                                               ; preds = %69
  br label %76

76:                                               ; preds = %75, %64
  br label %77

77:                                               ; preds = %76, %59
  br label %78

78:                                               ; preds = %77, %54
  br label %79

79:                                               ; preds = %78
  store i32 0, ptr %3, align 4
  br label %81

80:                                               ; preds = %39
  store i32 0, ptr %3, align 4
  br label %81

81:                                               ; preds = %80, %79, %70, %46, %35, %32, %24, %16
  %82 = load i32, ptr %3, align 4
  ret i32 %82
}