; Function Attrs: nounwind uwtable
define internal fastcc range(i32 -1, 1) i32 @git_default_branch_config(ptr noundef %0, ptr noundef %1) unnamed_addr #0 {
  %3 = tail call i32 @strcmp(ptr noundef nonnull dereferenceable(1) %0, ptr noundef nonnull dereferenceable(22) @.str.177) #29
  %.not = icmp eq i32 %3, 0
  br i1 %.not, label %4, label %21

4:                                                ; preds = %2
  %.not19 = icmp eq ptr %1, null
  br i1 %.not19, label %.split, label %5

5:                                                ; preds = %4
  %6 = tail call i32 @strcmp(ptr noundef nonnull dereferenceable(1) %1, ptr noundef nonnull dereferenceable(7) @.str.178) #29
  %.not20 = icmp eq i32 %6, 0
  br i1 %.not20, label %7, label %8

7:                                                ; preds = %5
  store i32 2, ptr @git_branch_track, align 4, !tbaa !14
  br label %46

8:                                                ; preds = %5
  %9 = tail call i32 @strcmp(ptr noundef nonnull dereferenceable(1) %1, ptr noundef nonnull dereferenceable(8) @.str.179) #29
  %.not21 = icmp eq i32 %9, 0
  br i1 %.not21, label %10, label %.critedge

10:                                               ; preds = %8
  store i32 5, ptr @git_branch_track, align 4, !tbaa !14
  br label %46

.split:                                           ; preds = %4
  %11 = tail call i32 @git_parse_maybe_bool(ptr noundef null) #30
  %12 = icmp slt i32 %11, 0
  br i1 %12, label %13, label %git_config_bool.exit

13:                                               ; preds = %.split
  %14 = tail call fastcc ptr @_(ptr noundef nonnull @.str.17)
  tail call void (ptr, ...) @die(ptr noundef %14, ptr noundef null, ptr noundef nonnull %0) #31
  unreachable

.critedge:                                        ; preds = %8
  %15 = tail call i32 @strcmp(ptr noundef nonnull dereferenceable(1) %1, ptr noundef nonnull dereferenceable(7) @.str.180) #29
  %.not22 = icmp eq i32 %15, 0
  br i1 %.not22, label %20, label %.split17

.split17:                                         ; preds = %.critedge
  %16 = tail call i32 @git_parse_maybe_bool(ptr noundef nonnull %1) #30
  %17 = icmp slt i32 %16, 0
  br i1 %17, label %18, label %git_config_bool.exit

18:                                               ; preds = %.split17
  %19 = tail call fastcc ptr @_(ptr noundef nonnull @.str.17)
  tail call void (ptr, ...) @die(ptr noundef %19, ptr noundef nonnull %1, ptr noundef nonnull %0) #31
  unreachable

20:                                               ; preds = %.critedge
  store i32 6, ptr @git_branch_track, align 4, !tbaa !14
  br label %46

git_config_bool.exit:                             ; preds = %.split17, %.split
  %phi.call = phi i32 [ %11, %.split ], [ %16, %.split17 ]
  store i32 %phi.call, ptr @git_branch_track, align 4, !tbaa !14
  br label %46

21:                                               ; preds = %2
  %22 = tail call i32 @strcmp(ptr noundef nonnull dereferenceable(1) %0, ptr noundef nonnull dereferenceable(23) @.str.181) #29
  %.not23 = icmp eq i32 %22, 0
  br i1 %.not23, label %23, label %46

23:                                               ; preds = %21
  %.not24 = icmp eq ptr %1, null
  br i1 %.not24, label %24, label %29

24:                                               ; preds = %23
  %25 = load i32, ptr @git_gettext_enabled, align 4, !tbaa !14
  %.not4.i.i = icmp eq i32 %25, 0
  br i1 %.not4.i.i, label %config_error_nonbool.exit, label %26

26:                                               ; preds = %24
  %27 = tail call ptr @dcgettext(ptr noundef null, ptr noundef nonnull @.str.74, i32 noundef 5) #30
  br label %config_error_nonbool.exit

config_error_nonbool.exit:                        ; preds = %24, %26
  %.0.i.i = phi ptr [ %27, %26 ], [ @.str.74, %24 ]
  %28 = tail call i32 (ptr, ...) @error(ptr noundef %.0.i.i, ptr noundef nonnull %0) #30
  br label %46

29:                                               ; preds = %23
  %30 = tail call i32 @strcmp(ptr noundef nonnull dereferenceable(1) %1, ptr noundef nonnull dereferenceable(6) @.str.182) #29
  %.not25 = icmp eq i32 %30, 0
  br i1 %.not25, label %31, label %32

31:                                               ; preds = %29
  store i32 0, ptr @autorebase, align 4, !tbaa !14
  br label %46

32:                                               ; preds = %29
  %33 = tail call i32 @strcmp(ptr noundef nonnull dereferenceable(1) %1, ptr noundef nonnull dereferenceable(6) @.str.83) #29
  %.not26 = icmp eq i32 %33, 0
  br i1 %.not26, label %34, label %35

34:                                               ; preds = %32
  store i32 1, ptr @autorebase, align 4, !tbaa !14
  br label %46

35:                                               ; preds = %32
  %36 = tail call i32 @strcmp(ptr noundef nonnull dereferenceable(1) %1, ptr noundef nonnull dereferenceable(7) @.str.183) #29
  %.not27 = icmp eq i32 %36, 0
  br i1 %.not27, label %37, label %38

37:                                               ; preds = %35
  store i32 2, ptr @autorebase, align 4, !tbaa !14
  br label %46

38:                                               ; preds = %35
  %39 = tail call i32 @strcmp(ptr noundef nonnull dereferenceable(1) %1, ptr noundef nonnull dereferenceable(7) @.str.178) #29
  %.not28 = icmp eq i32 %39, 0
  br i1 %.not28, label %40, label %41

40:                                               ; preds = %38
  store i32 3, ptr @autorebase, align 4, !tbaa !14
  br label %46

41:                                               ; preds = %38
  %42 = load i32, ptr @git_gettext_enabled, align 4, !tbaa !14
  %.not4.i = icmp eq i32 %42, 0
  br i1 %.not4.i, label %_.exit, label %43

43:                                               ; preds = %41
  %44 = tail call ptr @dcgettext(ptr noundef null, ptr noundef nonnull @.str.184, i32 noundef 5) #30
  br label %_.exit

_.exit:                                           ; preds = %41, %43
  %.0.i = phi ptr [ %44, %43 ], [ @.str.184, %41 ]
  %45 = tail call i32 (ptr, ...) @error(ptr noundef %.0.i, ptr noundef nonnull %0) #30
  br label %46

46:                                               ; preds = %21, %34, %40, %37, %31, %_.exit, %config_error_nonbool.exit, %git_config_bool.exit, %20, %10, %7
  %.0 = phi i32 [ -1, %_.exit ], [ -1, %config_error_nonbool.exit ], [ 0, %git_config_bool.exit ], [ 0, %20 ], [ 0, %10 ], [ 0, %7 ], [ 0, %31 ], [ 0, %37 ], [ 0, %40 ], [ 0, %34 ], [ 0, %21 ]
  ret i32 %.0
}